; Function Attrs: nofree norecurse nosync nounwind memory(argmem: readwrite) uwtable
define void @Kit_TruthMuxVar(ptr noundef writeonly captures(none) %0, ptr noundef readonly captures(none) %1, ptr noundef readonly captures(none) %2, i32 noundef %3, i32 noundef %4) local_unnamed_addr #0 {
  %6 = icmp slt i32 %3, 6
  %7 = add nsw i32 %3, -5
  %8 = shl nuw i32 1, %7
  %9 = select i1 %6, i32 1, i32 %8
  switch i32 %4, label %55 [
    i32 0, label %.preheader76
    i32 1, label %.preheader78
    i32 2, label %.preheader80
    i32 3, label %.preheader82
    i32 4, label %.preheader84
  ]

.preheader84:                                     ; preds = %5
  %10 = icmp sgt i32 %9, 0
  br i1 %10, label %.lr.ph.preheader, label %.loopexit

.lr.ph.preheader:                                 ; preds = %.preheader84
  %wide.trip.count = zext nneg i32 %9 to i64
  br label %.lr.ph

.preheader82:                                     ; preds = %5
  %11 = icmp sgt i32 %9, 0
  br i1 %11, label %.lr.ph88.preheader, label %.loopexit

.lr.ph88.preheader:                               ; preds = %.preheader82
  %wide.trip.count111 = zext nneg i32 %9 to i64
  br label %.lr.ph88

.preheader80:                                     ; preds = %5
  %12 = icmp sgt i32 %9, 0
  br i1 %12, label %.lr.ph90.preheader, label %.loopexit

.lr.ph90.preheader:                               ; preds = %.preheader80
  %wide.trip.count116 = zext nneg i32 %9 to i64
  br label %.lr.ph90

.preheader78:                                     ; preds = %5
  %13 = icmp sgt i32 %9, 0
  br i1 %13, label %.lr.ph92.preheader, label %.loopexit

.lr.ph92.preheader:                               ; preds = %.preheader78
  %wide.trip.count121 = zext nneg i32 %9 to i64
  br label %.lr.ph92

.preheader76:                                     ; preds = %5
  %14 = icmp sgt i32 %9, 0
  br i1 %14, label %.lr.ph94.preheader, label %.loopexit

.lr.ph94.preheader:                               ; preds = %.preheader76
  %wide.trip.count126 = zext nneg i32 %9 to i64
  br label %.lr.ph94

.lr.ph94:                                         ; preds = %.lr.ph94.preheader, %.lr.ph94
  %indvars.iv123 = phi i64 [ 0, %.lr.ph94.preheader ], [ %indvars.iv.next124, %.lr.ph94 ]
  %15 = getelementptr inbounds nuw i32, ptr %1, i64 %indvars.iv123
  %16 = load i32, ptr %15, align 4, !tbaa !3
  %17 = and i32 %16, 1431655765
  %18 = getelementptr inbounds nuw i32, ptr %2, i64 %indvars.iv123
  %19 = load i32, ptr %18, align 4, !tbaa !3
  %20 = and i32 %19, -1431655766
  %21 = or disjoint i32 %20, %17
  %22 = getelementptr inbounds nuw i32, ptr %0, i64 %indvars.iv123
  store i32 %21, ptr %22, align 4, !tbaa !3
  %indvars.iv.next124 = add nuw nsw i64 %indvars.iv123, 1
  %exitcond127.not = icmp eq i64 %indvars.iv.next124, %wide.trip.count126
  br i1 %exitcond127.not, label %.loopexit, label %.lr.ph94, !llvm.loop !128

.lr.ph92:                                         ; preds = %.lr.ph92.preheader, %.lr.ph92
  %indvars.iv118 = phi i64 [ 0, %.lr.ph92.preheader ], [ %indvars.iv.next119, %.lr.ph92 ]
  %23 = getelementptr inbounds nuw i32, ptr %1, i64 %indvars.iv118
  %24 = load i32, ptr %23, align 4, !tbaa !3
  %25 = and i32 %24, 858993459
  %26 = getelementptr inbounds nuw i32, ptr %2, i64 %indvars.iv118
  %27 = load i32, ptr %26, align 4, !tbaa !3
  %28 = and i32 %27, -858993460
  %29 = or disjoint i32 %28, %25
  %30 = getelementptr inbounds nuw i32, ptr %0, i64 %indvars.iv118
  store i32 %29, ptr %30, align 4, !tbaa !3
  %indvars.iv.next119 = add nuw nsw i64 %indvars.iv118, 1
  %exitcond122.not = icmp eq i64 %indvars.iv.next119, %wide.trip.count121
  br i1 %exitcond122.not, label %.loopexit, label %.lr.ph92, !llvm.loop !129

.lr.ph90:                                         ; preds = %.lr.ph90.preheader, %.lr.ph90
  %indvars.iv113 = phi i64 [ 0, %.lr.ph90.preheader ], [ %indvars.iv.next114, %.lr.ph90 ]
  %31 = getelementptr inbounds nuw i32, ptr %1, i64 %indvars.iv113
  %32 = load i32, ptr %31, align 4, !tbaa !3
  %33 = and i32 %32, 252645135
  %34 = getelementptr inbounds nuw i32, ptr %2, i64 %indvars.iv113
  %35 = load i32, ptr %34, align 4, !tbaa !3
  %36 = and i32 %35, -252645136
  %37 = or disjoint i32 %36, %33
  %38 = getelementptr inbounds nuw i32, ptr %0, i64 %indvars.iv113
  store i32 %37, ptr %38, align 4, !tbaa !3
  %indvars.iv.next114 = add nuw nsw i64 %indvars.iv113, 1
  %exitcond117.not = icmp eq i64 %indvars.iv.next114, %wide.trip.count116
  br i1 %exitcond117.not, label %.loopexit, label %.lr.ph90, !llvm.loop !130

.lr.ph88:                                         ; preds = %.lr.ph88.preheader, %.lr.ph88
  %indvars.iv108 = phi i64 [ 0, %.lr.ph88.preheader ], [ %indvars.iv.next109, %.lr.ph88 ]
  %39 = getelementptr inbounds nuw i32, ptr %1, i64 %indvars.iv108
  %40 = load i32, ptr %39, align 4, !tbaa !3
  %41 = and i32 %40, 16711935
  %42 = getelementptr inbounds nuw i32, ptr %2, i64 %indvars.iv108
  %43 = load i32, ptr %42, align 4, !tbaa !3
  %44 = and i32 %43, -16711936
  %45 = or disjoint i32 %44, %41
  %46 = getelementptr inbounds nuw i32, ptr %0, i64 %indvars.iv108
  store i32 %45, ptr %46, align 4, !tbaa !3
  %indvars.iv.next109 = add nuw nsw i64 %indvars.iv108, 1
  %exitcond112.not = icmp eq i64 %indvars.iv.next109, %wide.trip.count111
  br i1 %exitcond112.not, label %.loopexit, label %.lr.ph88, !llvm.loop !131

.lr.ph:                                           ; preds = %.lr.ph.preheader, %.lr.ph
  %indvars.iv = phi i64 [ 0, %.lr.ph.preheader ], [ %indvars.iv.next, %.lr.ph ]
  %47 = getelementptr inbounds nuw i32, ptr %1, i64 %indvars.iv
  %48 = load i32, ptr %47, align 4, !tbaa !3
  %49 = and i32 %48, 65535
  %50 = getelementptr inbounds nuw i32, ptr %2, i64 %indvars.iv
  %51 = load i32, ptr %50, align 4, !tbaa !3
  %52 = and i32 %51, -65536
  %53 = or disjoint i32 %52, %49
  %54 = getelementptr inbounds nuw i32, ptr %0, i64 %indvars.iv
  store i32 %53, ptr %54, align 4, !tbaa !3
  %indvars.iv.next = add nuw nsw i64 %indvars.iv, 1
  %exitcond.not = icmp eq i64 %indvars.iv.next, %wide.trip.count
  br i1 %exitcond.not, label %.loopexit, label %.lr.ph, !llvm.loop !132

55:                                               ; preds = %5
  %56 = add nsw i32 %4, -5
  %57 = shl nuw i32 1, %56
  %58 = icmp sgt i32 %9, 0
  br i1 %58, label %.preheader.lr.ph, label %.loopexit

.preheader.lr.ph:                                 ; preds = %55
  %.not = icmp eq i32 %56, 31
  %59 = shl i32 2, %56
  %60 = sext i32 %59 to i64
  br i1 %.not, label %.loopexit, label %.preheader.us.preheader

.preheader.us.preheader:                          ; preds = %.preheader.lr.ph
  %61 = sext i32 %57 to i64
  %smax = tail call i32 @llvm.smax.i32(i32 %57, i32 1)
  %wide.trip.count131 = zext nneg i32 %smax to i64
  br label %.preheader.us

.preheader.us:                                    ; preds = %.preheader.us.preheader, %._crit_edge.us
  %.0100.us = phi ptr [ %70, %._crit_edge.us ], [ %0, %.preheader.us.preheader ]
  %.07099.us = phi i32 [ %73, %._crit_edge.us ], [ 0, %.preheader.us.preheader ]
  %.07298.us = phi ptr [ %71, %._crit_edge.us ], [ %1, %.preheader.us.preheader ]
  %.07397.us = phi ptr [ %72, %._crit_edge.us ], [ %2, %.preheader.us.preheader ]
  br label %62

62:                                               ; preds = %.preheader.us, %62
  %indvars.iv128 = phi i64 [ 0, %.preheader.us ], [ %indvars.iv.next129, %62 ]
  %63 = getelementptr inbounds nuw i32, ptr %.07298.us, i64 %indvars.iv128
  %64 = load i32, ptr %63, align 4, !tbaa !3
  %65 = getelementptr inbounds nuw i32, ptr %.0100.us, i64 %indvars.iv128
  store i32 %64, ptr %65, align 4, !tbaa !3
  %66 = add nuw nsw i64 %indvars.iv128, %61
  %67 = getelementptr inbounds i32, ptr %.07397.us, i64 %66
  %68 = load i32, ptr %67, align 4, !tbaa !3
  %69 = getelementptr inbounds i32, ptr %.0100.us, i64 %66
  store i32 %68, ptr %69, align 4, !tbaa !3
  %indvars.iv.next129 = add nuw nsw i64 %indvars.iv128, 1
  %exitcond132.not = icmp eq i64 %indvars.iv.next129, %wide.trip.count131
  br i1 %exitcond132.not, label %._crit_edge.us, label %62, !llvm.loop !133

._crit_edge.us:                                   ; preds = %62
  %70 = getelementptr inbounds i32, ptr %.0100.us, i64 %60
  %71 = getelementptr inbounds i32, ptr %.07298.us, i64 %60
  %72 = getelementptr inbounds i32, ptr %.07397.us, i64 %60
  %73 = add nsw i32 %.07099.us, %59
  %74 = icmp slt i32 %73, %9
  br i1 %74, label %.preheader.us, label %.loopexit, !llvm.loop !134

.loopexit:                                        ; preds = %.lr.ph, %.lr.ph88, %.lr.ph90, %.lr.ph92, %.lr.ph94, %._crit_edge.us, %.preheader.lr.ph, %.preheader84, %.preheader82, %.preheader80, %.preheader78, %.preheader76, %55
  ret void
}